
Keypad.elf:     file format elf32-avr

Sections:
Idx Name          Size      VMA       LMA       File off  Algn
  0 .text         000005ce  00000000  00000000  000000b4  2**1
                  CONTENTS, ALLOC, LOAD, READONLY, CODE
  1 .data         00000018  00800060  000005ce  00000682  2**0
                  CONTENTS, ALLOC, LOAD, DATA
  2 .bss          0000000a  00800078  00800078  0000069a  2**0
                  ALLOC
  3 .eeprom       00000008  00810000  00810000  0000069a  2**0
                  CONTENTS, ALLOC, LOAD, DATA
  4 .comment      00000030  00000000  00000000  000006a2  2**0
                  CONTENTS, READONLY
  5 .note.gnu.avr.deviceinfo 0000003c  00000000  00000000  000006d4  2**2
                  CONTENTS, READONLY
  6 .debug_aranges 00000098  00000000  00000000  00000710  2**3
                  CONTENTS, READONLY, DEBUGGING
  7 .debug_info   00001032  00000000  00000000  000007a8  2**0
                  CONTENTS, READONLY, DEBUGGING
  8 .debug_abbrev 00000745  00000000  00000000  000017da  2**0
                  CONTENTS, READONLY, DEBUGGING
  9 .debug_line   00000773  00000000  00000000  00001f1f  2**0
                  CONTENTS, READONLY, DEBUGGING
 10 .debug_frame  00000138  00000000  00000000  00002694  2**2
                  CONTENTS, READONLY, DEBUGGING
 11 .debug_str    000003f7  00000000  00000000  000027cc  2**0
                  CONTENTS, READONLY, DEBUGGING
 12 .debug_loc    000009f7  00000000  00000000  00002bc3  2**0
                  CONTENTS, READONLY, DEBUGGING
 13 .debug_ranges 00000060  00000000  00000000  000035ba  2**0
                  CONTENTS, READONLY, DEBUGGING

Disassembly of section .text:

00000000 <__vectors>:
   0:	0c 94 2a 00 	jmp	0x54	; 0x54 <__ctors_end>
   4:	0c 94 47 00 	jmp	0x8e	; 0x8e <__bad_interrupt>
   8:	0c 94 47 00 	jmp	0x8e	; 0x8e <__bad_interrupt>
   c:	0c 94 47 00 	jmp	0x8e	; 0x8e <__bad_interrupt>
  10:	0c 94 47 00 	jmp	0x8e	; 0x8e <__bad_interrupt>
  14:	0c 94 47 00 	jmp	0x8e	; 0x8e <__bad_interrupt>
  18:	0c 94 47 00 	jmp	0x8e	; 0x8e <__bad_interrupt>
  1c:	0c 94 47 00 	jmp	0x8e	; 0x8e <__bad_interrupt>
  20:	0c 94 47 00 	jmp	0x8e	; 0x8e <__bad_interrupt>
  24:	0c 94 47 00 	jmp	0x8e	; 0x8e <__bad_interrupt>
  28:	0c 94 47 00 	jmp	0x8e	; 0x8e <__bad_interrupt>
  2c:	0c 94 47 00 	jmp	0x8e	; 0x8e <__bad_interrupt>
  30:	0c 94 47 00 	jmp	0x8e	; 0x8e <__bad_interrupt>
  34:	0c 94 47 00 	jmp	0x8e	; 0x8e <__bad_interrupt>
  38:	0c 94 47 00 	jmp	0x8e	; 0x8e <__bad_interrupt>
  3c:	0c 94 47 00 	jmp	0x8e	; 0x8e <__bad_interrupt>
  40:	0c 94 47 00 	jmp	0x8e	; 0x8e <__bad_interrupt>
  44:	0c 94 47 00 	jmp	0x8e	; 0x8e <__bad_interrupt>
  48:	0c 94 47 00 	jmp	0x8e	; 0x8e <__bad_interrupt>
  4c:	0c 94 47 00 	jmp	0x8e	; 0x8e <__bad_interrupt>
  50:	0c 94 47 00 	jmp	0x8e	; 0x8e <__bad_interrupt>

00000054 <__ctors_end>:
  54:	11 24       	eor	r1, r1
  56:	1f be       	out	0x3f, r1	; 63
  58:	cf e5       	ldi	r28, 0x5F	; 95
  5a:	d8 e0       	ldi	r29, 0x08	; 8
  5c:	de bf       	out	0x3e, r29	; 62
  5e:	cd bf       	out	0x3d, r28	; 61

00000060 <__do_copy_data>:
  60:	10 e0       	ldi	r17, 0x00	; 0
  62:	a0 e6       	ldi	r26, 0x60	; 96
  64:	b0 e0       	ldi	r27, 0x00	; 0
  66:	ee ec       	ldi	r30, 0xCE	; 206
  68:	f5 e0       	ldi	r31, 0x05	; 5
  6a:	02 c0       	rjmp	.+4      	; 0x70 <__do_copy_data+0x10>
  6c:	05 90       	lpm	r0, Z+
  6e:	0d 92       	st	X+, r0
  70:	a8 37       	cpi	r26, 0x78	; 120
  72:	b1 07       	cpc	r27, r17
  74:	d9 f7       	brne	.-10     	; 0x6c <__do_copy_data+0xc>

00000076 <__do_clear_bss>:
  76:	20 e0       	ldi	r18, 0x00	; 0
  78:	a8 e7       	ldi	r26, 0x78	; 120
  7a:	b0 e0       	ldi	r27, 0x00	; 0
  7c:	01 c0       	rjmp	.+2      	; 0x80 <.do_clear_bss_start>

0000007e <.do_clear_bss_loop>:
  7e:	1d 92       	st	X+, r1

00000080 <.do_clear_bss_start>:
  80:	a2 38       	cpi	r26, 0x82	; 130
  82:	b2 07       	cpc	r27, r18
  84:	e1 f7       	brne	.-8      	; 0x7e <.do_clear_bss_loop>
  86:	0e 94 40 02 	call	0x480	; 0x480 <main>
  8a:	0c 94 e5 02 	jmp	0x5ca	; 0x5ca <_exit>

0000008e <__bad_interrupt>:
  8e:	0c 94 00 00 	jmp	0	; 0x0 <__vectors>

00000092 <passwordCheck>:
unsigned int wrongpass = 1;

unsigned char passChanging = '0';

unsigned char passwordCheck()
{
  92:	cf 92       	push	r12
  94:	df 92       	push	r13
  96:	ff 92       	push	r15
  98:	0f 93       	push	r16
  9a:	1f 93       	push	r17
  9c:	cf 93       	push	r28
  9e:	df 93       	push	r29
  a0:	c8 e7       	ldi	r28, 0x78	; 120
  a2:	d0 e0       	ldi	r29, 0x00	; 0
  a4:	00 e0       	ldi	r16, 0x00	; 0
  a6:	10 e0       	ldi	r17, 0x00	; 0
  a8:	0f 2e       	mov	r0, r31
  aa:	f0 e8       	ldi	r31, 0x80	; 128
  ac:	cf 2e       	mov	r12, r31
  ae:	f0 e0       	ldi	r31, 0x00	; 0
  b0:	df 2e       	mov	r13, r31
  b2:	f0 2d       	mov	r31, r0
	for ( int j = 0 ; j<8 ; j++ )
	{
		if ( inPass [j] != eeprom_read_byte(&password[j]) )
  b4:	f9 90       	ld	r15, Y+
  b6:	c8 01       	movw	r24, r16
  b8:	0e 94 d0 02 	call	0x5a0	; 0x5a0 <eeprom_read_byte>
  bc:	f8 12       	cpse	r15, r24
  be:	07 c0       	rjmp	.+14     	; 0xce <passwordCheck+0x3c>
  c0:	0f 5f       	subi	r16, 0xFF	; 255
  c2:	1f 4f       	sbci	r17, 0xFF	; 255

unsigned char passChanging = '0';

unsigned char passwordCheck()
{
	for ( int j = 0 ; j<8 ; j++ )
  c4:	cc 15       	cp	r28, r12
  c6:	dd 05       	cpc	r29, r13
  c8:	a9 f7       	brne	.-22     	; 0xb4 <passwordCheck+0x22>
	{
		if ( inPass [j] != eeprom_read_byte(&password[j]) )
			return '0';
	}
	
	return '1';
  ca:	81 e3       	ldi	r24, 0x31	; 49
  cc:	01 c0       	rjmp	.+2      	; 0xd0 <passwordCheck+0x3e>
unsigned char passwordCheck()
{
	for ( int j = 0 ; j<8 ; j++ )
	{
		if ( inPass [j] != eeprom_read_byte(&password[j]) )
			return '0';
  ce:	80 e3       	ldi	r24, 0x30	; 48
	}
	
	return '1';
}
  d0:	df 91       	pop	r29
  d2:	cf 91       	pop	r28
  d4:	1f 91       	pop	r17
  d6:	0f 91       	pop	r16
  d8:	ff 90       	pop	r15
  da:	df 90       	pop	r13
  dc:	cf 90       	pop	r12
  de:	08 95       	ret

000000e0 <letterReader>:

unsigned char letterReader( int row )
{
  e0:	cf 93       	push	r28
  e2:	df 93       	push	r29
  e4:	cd b7       	in	r28, 0x3d	; 61
  e6:	de b7       	in	r29, 0x3e	; 62
  e8:	2c 97       	sbiw	r28, 0x0c	; 12
  ea:	0f b6       	in	r0, 0x3f	; 63
  ec:	f8 94       	cli
  ee:	de bf       	out	0x3e, r29	; 62
  f0:	0f be       	out	0x3f, r0	; 63
  f2:	cd bf       	out	0x3d, r28	; 61
  f4:	ac 01       	movw	r20, r24
	unsigned char table [4][3] = {{'1','2','3'},
  f6:	8c e0       	ldi	r24, 0x0C	; 12
  f8:	e3 e6       	ldi	r30, 0x63	; 99
  fa:	f0 e0       	ldi	r31, 0x00	; 0
  fc:	de 01       	movw	r26, r28
  fe:	11 96       	adiw	r26, 0x01	; 1
 100:	01 90       	ld	r0, Z+
 102:	0d 92       	st	X+, r0
 104:	8a 95       	dec	r24
 106:	e1 f7       	brne	.-8      	; 0x100 <letterReader+0x20>
								  {'4','5','6'},
								  {'7','8','9'},
								  {'*','0','#'}};
		
	KEY_ROW = ~(1<<row);
 108:	21 e0       	ldi	r18, 0x01	; 1
 10a:	30 e0       	ldi	r19, 0x00	; 0
 10c:	04 2e       	mov	r0, r20
 10e:	02 c0       	rjmp	.+4      	; 0x114 <letterReader+0x34>
 110:	22 0f       	add	r18, r18
 112:	33 1f       	adc	r19, r19
 114:	0a 94       	dec	r0
 116:	e2 f7       	brpl	.-8      	; 0x110 <letterReader+0x30>
 118:	20 95       	com	r18
 11a:	2b bb       	out	0x1b, r18	; 27
	unsigned int column = (KEY_COL & 0xE0)>>5;
 11c:	99 b3       	in	r25, 0x19	; 25
	unsigned char letter;
	switch(column)
 11e:	92 95       	swap	r25
 120:	96 95       	lsr	r25
 122:	97 70       	andi	r25, 0x07	; 7
 124:	95 30       	cpi	r25, 0x05	; 5
 126:	79 f0       	breq	.+30     	; 0x146 <letterReader+0x66>
 128:	96 30       	cpi	r25, 0x06	; 6
 12a:	19 f0       	breq	.+6      	; 0x132 <letterReader+0x52>
 12c:	93 30       	cpi	r25, 0x03	; 3
 12e:	f9 f4       	brne	.+62     	; 0x16e <letterReader+0x8e>
 130:	14 c0       	rjmp	.+40     	; 0x15a <letterReader+0x7a>
			letter = 0;
			return letter;
		}
		case(6):
		{
			letter = table[row][2];
 132:	fa 01       	movw	r30, r20
 134:	ee 0f       	add	r30, r30
 136:	ff 1f       	adc	r31, r31
 138:	4e 0f       	add	r20, r30
 13a:	5f 1f       	adc	r21, r31
 13c:	fe 01       	movw	r30, r28
 13e:	e4 0f       	add	r30, r20
 140:	f5 1f       	adc	r31, r21
 142:	83 81       	ldd	r24, Z+3	; 0x03
			return letter;
 144:	15 c0       	rjmp	.+42     	; 0x170 <letterReader+0x90>
		}
		case(5):
		{
			letter = table[row][1];
 146:	fa 01       	movw	r30, r20
 148:	ee 0f       	add	r30, r30
 14a:	ff 1f       	adc	r31, r31
 14c:	4e 0f       	add	r20, r30
 14e:	5f 1f       	adc	r21, r31
 150:	fe 01       	movw	r30, r28
 152:	e4 0f       	add	r30, r20
 154:	f5 1f       	adc	r31, r21
 156:	82 81       	ldd	r24, Z+2	; 0x02
			return letter;
 158:	0b c0       	rjmp	.+22     	; 0x170 <letterReader+0x90>
		}
		case(3):
		{
			letter = table[row][0];
 15a:	fa 01       	movw	r30, r20
 15c:	ee 0f       	add	r30, r30
 15e:	ff 1f       	adc	r31, r31
 160:	4e 0f       	add	r20, r30
 162:	5f 1f       	adc	r21, r31
 164:	fe 01       	movw	r30, r28
 166:	e4 0f       	add	r30, r20
 168:	f5 1f       	adc	r31, r21
 16a:	81 81       	ldd	r24, Z+1	; 0x01
			return letter;
 16c:	01 c0       	rjmp	.+2      	; 0x170 <letterReader+0x90>
	switch(column)
	{
		case(7):
		{
			letter = 0;
			return letter;
 16e:	80 e0       	ldi	r24, 0x00	; 0
			letter = table[row][0];
			return letter;
		}
	}
	return 0;
}
 170:	2c 96       	adiw	r28, 0x0c	; 12
 172:	0f b6       	in	r0, 0x3f	; 63
 174:	f8 94       	cli
 176:	de bf       	out	0x3e, r29	; 62
 178:	0f be       	out	0x3f, r0	; 63
 17a:	cd bf       	out	0x3d, r28	; 61
 17c:	df 91       	pop	r29
 17e:	cf 91       	pop	r28
 180:	08 95       	ret

00000182 <lcdCommand>:

void lcdCommand( unsigned char cmd )
{
	LCD_OUT = cmd;
 182:	88 bb       	out	0x18, r24	; 24
	ETC_OUT |= 0b00000001;
 184:	90 9a       	sbi	0x12, 0	; 18
	ETC_OUT &= 0b11111001;
 186:	82 b3       	in	r24, 0x12	; 18
 188:	89 7f       	andi	r24, 0xF9	; 249
 18a:	82 bb       	out	0x12, r24	; 18
	#else
		//round up by default
		__ticks_dc = (uint32_t)(ceil(fabs(__tmp)));
	#endif

	__builtin_avr_delay_cycles(__ticks_dc);
 18c:	82 e0       	ldi	r24, 0x02	; 2
 18e:	8a 95       	dec	r24
 190:	f1 f7       	brne	.-4      	; 0x18e <lcdCommand+0xc>
 192:	00 c0       	rjmp	.+0      	; 0x194 <lcdCommand+0x12>
	_delay_us(1);
	ETC_OUT &= 0b11111110 ;
 194:	90 98       	cbi	0x12, 0	; 18
 196:	87 ec       	ldi	r24, 0xC7	; 199
 198:	90 e0       	ldi	r25, 0x00	; 0
 19a:	01 97       	sbiw	r24, 0x01	; 1
 19c:	f1 f7       	brne	.-4      	; 0x19a <lcdCommand+0x18>
 19e:	00 c0       	rjmp	.+0      	; 0x1a0 <lcdCommand+0x1e>
 1a0:	00 00       	nop
 1a2:	08 95       	ret

000001a4 <lcdInit>:
	_delay_us(100);
}

void lcdInit()
{
	ETC_DDR = 0x0F;
 1a4:	8f e0       	ldi	r24, 0x0F	; 15
 1a6:	81 bb       	out	0x11, r24	; 17
	LCD_DDR = 0xFF;
 1a8:	8f ef       	ldi	r24, 0xFF	; 255
 1aa:	87 bb       	out	0x17, r24	; 23
	ETC_OUT = 0x00;
 1ac:	12 ba       	out	0x12, r1	; 18
	#else
		//round up by default
		__ticks_dc = (uint32_t)(ceil(fabs(__tmp)));
	#endif

	__builtin_avr_delay_cycles(__ticks_dc);
 1ae:	8f ec       	ldi	r24, 0xCF	; 207
 1b0:	97 e0       	ldi	r25, 0x07	; 7
 1b2:	01 97       	sbiw	r24, 0x01	; 1
 1b4:	f1 f7       	brne	.-4      	; 0x1b2 <lcdInit+0xe>
 1b6:	00 c0       	rjmp	.+0      	; 0x1b8 <lcdInit+0x14>
 1b8:	00 00       	nop
	_delay_ms(1);
	
	lcdCommand(0x34);
 1ba:	84 e3       	ldi	r24, 0x34	; 52
 1bc:	0e 94 c1 00 	call	0x182	; 0x182 <lcdCommand>
	lcdCommand(0x0F);
 1c0:	8f e0       	ldi	r24, 0x0F	; 15
 1c2:	0e 94 c1 00 	call	0x182	; 0x182 <lcdCommand>
	lcdCommand(0x01);
 1c6:	81 e0       	ldi	r24, 0x01	; 1
 1c8:	0e 94 c1 00 	call	0x182	; 0x182 <lcdCommand>
 1cc:	8f ec       	ldi	r24, 0xCF	; 207
 1ce:	97 e0       	ldi	r25, 0x07	; 7
 1d0:	01 97       	sbiw	r24, 0x01	; 1
 1d2:	f1 f7       	brne	.-4      	; 0x1d0 <lcdInit+0x2c>
 1d4:	00 c0       	rjmp	.+0      	; 0x1d6 <lcdInit+0x32>
 1d6:	00 00       	nop
	_delay_ms(1);
	lcdCommand(0x06);
 1d8:	86 e0       	ldi	r24, 0x06	; 6
 1da:	0e 94 c1 00 	call	0x182	; 0x182 <lcdCommand>
 1de:	08 95       	ret

000001e0 <lcdType>:
}

void lcdType( unsigned char letter )
{
 1e0:	ef 92       	push	r14
 1e2:	ff 92       	push	r15
 1e4:	0f 93       	push	r16
 1e6:	1f 93       	push	r17
 1e8:	cf 93       	push	r28
 1ea:	df 93       	push	r29
 1ec:	1f 92       	push	r1
 1ee:	cd b7       	in	r28, 0x3d	; 61
 1f0:	de b7       	in	r29, 0x3e	; 62
 1f2:	89 83       	std	Y+1, r24	; 0x01
	if ( letter == '*' )
 1f4:	18 2f       	mov	r17, r24
 1f6:	8a 32       	cpi	r24, 0x2A	; 42
 1f8:	31 f5       	brne	.+76     	; 0x246 <lcdType+0x66>
	{
		if (strlen(inPass) == 0)
 1fa:	80 91 78 00 	lds	r24, 0x0078	; 0x800078 <__data_end>
 1fe:	81 11       	cpse	r24, r1
 200:	04 c0       	rjmp	.+8      	; 0x20a <lcdType+0x2a>
		{
			lcdCommand(2);
 202:	82 e0       	ldi	r24, 0x02	; 2
 204:	0e 94 c1 00 	call	0x182	; 0x182 <lcdCommand>
			return;
 208:	90 c0       	rjmp	.+288    	; 0x32a <lcdType+0x14a>
		}
			
		inPass[strlen(inPass)-1] = '\0';
 20a:	e8 e7       	ldi	r30, 0x78	; 120
 20c:	f0 e0       	ldi	r31, 0x00	; 0
 20e:	01 90       	ld	r0, Z+
 210:	00 20       	and	r0, r0
 212:	e9 f7       	brne	.-6      	; 0x20e <lcdType+0x2e>
 214:	32 97       	sbiw	r30, 0x02	; 2
 216:	10 82       	st	Z, r1
		lcdCommand(0x10);
 218:	80 e1       	ldi	r24, 0x10	; 16
 21a:	0e 94 c1 00 	call	0x182	; 0x182 <lcdCommand>
		LCD_OUT = 0x20;
 21e:	80 e2       	ldi	r24, 0x20	; 32
 220:	88 bb       	out	0x18, r24	; 24
		ETC_OUT = 0x05;
 222:	85 e0       	ldi	r24, 0x05	; 5
 224:	82 bb       	out	0x12, r24	; 18
	#else
		//round up by default
		__ticks_dc = (uint32_t)(ceil(fabs(__tmp)));
	#endif

	__builtin_avr_delay_cycles(__ticks_dc);
 226:	22 e0       	ldi	r18, 0x02	; 2
 228:	2a 95       	dec	r18
 22a:	f1 f7       	brne	.-4      	; 0x228 <lcdType+0x48>
 22c:	00 c0       	rjmp	.+0      	; 0x22e <lcdType+0x4e>
		_delay_us(1);
		ETC_OUT = 0x04;
 22e:	84 e0       	ldi	r24, 0x04	; 4
 230:	82 bb       	out	0x12, r24	; 18
 232:	87 ec       	ldi	r24, 0xC7	; 199
 234:	90 e0       	ldi	r25, 0x00	; 0
 236:	01 97       	sbiw	r24, 0x01	; 1
 238:	f1 f7       	brne	.-4      	; 0x236 <lcdType+0x56>
 23a:	00 c0       	rjmp	.+0      	; 0x23c <lcdType+0x5c>
 23c:	00 00       	nop
		_delay_us(100);
		lcdCommand(0x10);
 23e:	80 e1       	ldi	r24, 0x10	; 16
 240:	0e 94 c1 00 	call	0x182	; 0x182 <lcdCommand>
		return;
 244:	72 c0       	rjmp	.+228    	; 0x32a <lcdType+0x14a>
	}
	else if ( letter == '#' )
 246:	83 32       	cpi	r24, 0x23	; 35
 248:	09 f0       	breq	.+2      	; 0x24c <lcdType+0x6c>
 24a:	51 c0       	rjmp	.+162    	; 0x2ee <lcdType+0x10e>
	{
		lcdCommand(1);
 24c:	81 e0       	ldi	r24, 0x01	; 1
 24e:	0e 94 c1 00 	call	0x182	; 0x182 <lcdCommand>
		lcdCommand(2);
 252:	82 e0       	ldi	r24, 0x02	; 2
 254:	0e 94 c1 00 	call	0x182	; 0x182 <lcdCommand>
		
		if (wrongpass == 3)
 258:	80 91 61 00 	lds	r24, 0x0061	; 0x800061 <wrongpass>
 25c:	90 91 62 00 	lds	r25, 0x0062	; 0x800062 <wrongpass+0x1>
 260:	03 97       	sbiw	r24, 0x03	; 3
 262:	09 f0       	breq	.+2      	; 0x266 <lcdType+0x86>
 264:	5d c0       	rjmp	.+186    	; 0x320 <lcdType+0x140>
		{
			PORTC |= 1;
 266:	a8 9a       	sbi	0x15, 0	; 21
	#else
		//round up by default
		__ticks_dc = (uint32_t)(ceil(fabs(__tmp)));
	#endif

	__builtin_avr_delay_cycles(__ticks_dc);
 268:	9f ef       	ldi	r25, 0xFF	; 255
 26a:	a0 e7       	ldi	r26, 0x70	; 112
 26c:	b2 e0       	ldi	r27, 0x02	; 2
 26e:	91 50       	subi	r25, 0x01	; 1
 270:	a0 40       	sbci	r26, 0x00	; 0
 272:	b0 40       	sbci	r27, 0x00	; 0
 274:	e1 f7       	brne	.-8      	; 0x26e <lcdType+0x8e>
 276:	00 c0       	rjmp	.+0      	; 0x278 <lcdType+0x98>
 278:	00 00       	nop
			_delay_ms(100);
			PORTC &= 0;
 27a:	85 b3       	in	r24, 0x15	; 21
 27c:	15 ba       	out	0x15, r1	; 21
			wrongpass = 0;
 27e:	10 92 62 00 	sts	0x0062, r1	; 0x800062 <wrongpass+0x1>
 282:	10 92 61 00 	sts	0x0061, r1	; 0x800061 <wrongpass>
		}
		
		if ( passwordCheck() == '1')
 286:	0e 94 49 00 	call	0x92	; 0x92 <passwordCheck>
 28a:	81 33       	cpi	r24, 0x31	; 49
 28c:	f9 f4       	brne	.+62     	; 0x2cc <lcdType+0xec>
 28e:	00 e0       	ldi	r16, 0x00	; 0
 290:	10 e0       	ldi	r17, 0x00	; 0
 292:	0f 2e       	mov	r0, r31
 294:	f8 e0       	ldi	r31, 0x08	; 8
 296:	ef 2e       	mov	r14, r31
 298:	f0 e0       	ldi	r31, 0x00	; 0
 29a:	ff 2e       	mov	r15, r31
 29c:	f0 2d       	mov	r31, r0
		{
			for ( int j = 0 ; j<8 ; j++)
			{
				lcdType( eeprom_read_byte(&password[j]) );
 29e:	c8 01       	movw	r24, r16
 2a0:	0e 94 d0 02 	call	0x5a0	; 0x5a0 <eeprom_read_byte>
 2a4:	0e 94 f0 00 	call	0x1e0	; 0x1e0 <lcdType>
 2a8:	0f 5f       	subi	r16, 0xFF	; 255
 2aa:	1f 4f       	sbci	r17, 0xFF	; 255
			wrongpass = 0;
		}
		
		if ( passwordCheck() == '1')
		{
			for ( int j = 0 ; j<8 ; j++)
 2ac:	0e 15       	cp	r16, r14
 2ae:	1f 05       	cpc	r17, r15
 2b0:	b1 f7       	brne	.-20     	; 0x29e <lcdType+0xbe>
			{
				lcdType( eeprom_read_byte(&password[j]) );
			}
			ETC_OUT = 0x0C;
 2b2:	8c e0       	ldi	r24, 0x0C	; 12
 2b4:	82 bb       	out	0x12, r24	; 18
			wrongpass = 0;
 2b6:	10 92 62 00 	sts	0x0062, r1	; 0x800062 <wrongpass+0x1>
 2ba:	10 92 61 00 	sts	0x0061, r1	; 0x800061 <wrongpass>
			login = 1;
 2be:	81 e0       	ldi	r24, 0x01	; 1
 2c0:	90 e0       	ldi	r25, 0x00	; 0
 2c2:	90 93 81 00 	sts	0x0081, r25	; 0x800081 <login+0x1>
 2c6:	80 93 80 00 	sts	0x0080, r24	; 0x800080 <login>
 2ca:	09 c0       	rjmp	.+18     	; 0x2de <lcdType+0xfe>
		}
		
		else
		{
			wrongpass++;
 2cc:	80 91 61 00 	lds	r24, 0x0061	; 0x800061 <wrongpass>
 2d0:	90 91 62 00 	lds	r25, 0x0062	; 0x800062 <wrongpass+0x1>
 2d4:	01 96       	adiw	r24, 0x01	; 1
 2d6:	90 93 62 00 	sts	0x0062, r25	; 0x800062 <wrongpass+0x1>
 2da:	80 93 61 00 	sts	0x0061, r24	; 0x800061 <wrongpass>
		}
		memset(inPass,'\0',sizeof(inPass));
 2de:	88 e0       	ldi	r24, 0x08	; 8
 2e0:	e8 e7       	ldi	r30, 0x78	; 120
 2e2:	f0 e0       	ldi	r31, 0x00	; 0
 2e4:	df 01       	movw	r26, r30
 2e6:	1d 92       	st	X+, r1
 2e8:	8a 95       	dec	r24
 2ea:	e9 f7       	brne	.-6      	; 0x2e6 <lcdType+0x106>
		return;
 2ec:	1e c0       	rjmp	.+60     	; 0x32a <lcdType+0x14a>
	}
	else
	{
		strncat(inPass,&letter,1);
 2ee:	41 e0       	ldi	r20, 0x01	; 1
 2f0:	50 e0       	ldi	r21, 0x00	; 0
 2f2:	be 01       	movw	r22, r28
 2f4:	6f 5f       	subi	r22, 0xFF	; 255
 2f6:	7f 4f       	sbci	r23, 0xFF	; 255
 2f8:	88 e7       	ldi	r24, 0x78	; 120
 2fa:	90 e0       	ldi	r25, 0x00	; 0
 2fc:	0e 94 c0 02 	call	0x580	; 0x580 <strncat>
		LCD_OUT = letter;
 300:	18 bb       	out	0x18, r17	; 24
		ETC_OUT = 0x05;
 302:	85 e0       	ldi	r24, 0x05	; 5
 304:	82 bb       	out	0x12, r24	; 18
	#else
		//round up by default
		__ticks_dc = (uint32_t)(ceil(fabs(__tmp)));
	#endif

	__builtin_avr_delay_cycles(__ticks_dc);
 306:	b2 e0       	ldi	r27, 0x02	; 2
 308:	ba 95       	dec	r27
 30a:	f1 f7       	brne	.-4      	; 0x308 <lcdType+0x128>
 30c:	00 c0       	rjmp	.+0      	; 0x30e <lcdType+0x12e>
		_delay_us(1);
		ETC_OUT = 0x04;
 30e:	84 e0       	ldi	r24, 0x04	; 4
 310:	82 bb       	out	0x12, r24	; 18
 312:	87 ec       	ldi	r24, 0xC7	; 199
 314:	90 e0       	ldi	r25, 0x00	; 0
 316:	01 97       	sbiw	r24, 0x01	; 1
 318:	f1 f7       	brne	.-4      	; 0x316 <lcdType+0x136>
 31a:	00 c0       	rjmp	.+0      	; 0x31c <lcdType+0x13c>
 31c:	00 00       	nop
 31e:	05 c0       	rjmp	.+10     	; 0x32a <lcdType+0x14a>
			_delay_ms(100);
			PORTC &= 0;
			wrongpass = 0;
		}
		
		if ( passwordCheck() == '1')
 320:	0e 94 49 00 	call	0x92	; 0x92 <passwordCheck>
 324:	81 33       	cpi	r24, 0x31	; 49
 326:	91 f6       	brne	.-92     	; 0x2cc <lcdType+0xec>
 328:	b2 cf       	rjmp	.-156    	; 0x28e <lcdType+0xae>
		ETC_OUT = 0x05;
		_delay_us(1);
		ETC_OUT = 0x04;
		_delay_us(100);
	}
}
 32a:	0f 90       	pop	r0
 32c:	df 91       	pop	r29
 32e:	cf 91       	pop	r28
 330:	1f 91       	pop	r17
 332:	0f 91       	pop	r16
 334:	ff 90       	pop	r15
 336:	ef 90       	pop	r14
 338:	08 95       	ret

0000033a <lcdPassType>:

void lcdPassType( unsigned char letter )
{
 33a:	cf 92       	push	r12
 33c:	df 92       	push	r13
 33e:	ef 92       	push	r14
 340:	ff 92       	push	r15
 342:	0f 93       	push	r16
 344:	1f 93       	push	r17
 346:	cf 93       	push	r28
 348:	df 93       	push	r29
 34a:	1f 92       	push	r1
 34c:	cd b7       	in	r28, 0x3d	; 61
 34e:	de b7       	in	r29, 0x3e	; 62
 350:	89 83       	std	Y+1, r24	; 0x01
	if ( letter == '*' )
 352:	18 2f       	mov	r17, r24
 354:	8a 32       	cpi	r24, 0x2A	; 42
 356:	31 f5       	brne	.+76     	; 0x3a4 <lcdPassType+0x6a>
	{
		if (strlen(inPass) == 0)
 358:	80 91 78 00 	lds	r24, 0x0078	; 0x800078 <__data_end>
 35c:	81 11       	cpse	r24, r1
 35e:	04 c0       	rjmp	.+8      	; 0x368 <lcdPassType+0x2e>
		{
			lcdCommand(2);
 360:	82 e0       	ldi	r24, 0x02	; 2
 362:	0e 94 c1 00 	call	0x182	; 0x182 <lcdCommand>
			return;
 366:	62 c0       	rjmp	.+196    	; 0x42c <__LOCK_REGION_LENGTH__+0x2c>
		}
		
		inPass[strlen(inPass)-1] = '\0';
 368:	e8 e7       	ldi	r30, 0x78	; 120
 36a:	f0 e0       	ldi	r31, 0x00	; 0
 36c:	01 90       	ld	r0, Z+
 36e:	00 20       	and	r0, r0
 370:	e9 f7       	brne	.-6      	; 0x36c <lcdPassType+0x32>
 372:	32 97       	sbiw	r30, 0x02	; 2
 374:	10 82       	st	Z, r1
		lcdCommand(0x10);
 376:	80 e1       	ldi	r24, 0x10	; 16
 378:	0e 94 c1 00 	call	0x182	; 0x182 <lcdCommand>
		LCD_OUT = 0x20;
 37c:	80 e2       	ldi	r24, 0x20	; 32
 37e:	88 bb       	out	0x18, r24	; 24
		ETC_OUT = 0x0D;
 380:	8d e0       	ldi	r24, 0x0D	; 13
 382:	82 bb       	out	0x12, r24	; 18
 384:	82 e0       	ldi	r24, 0x02	; 2
 386:	8a 95       	dec	r24
 388:	f1 f7       	brne	.-4      	; 0x386 <lcdPassType+0x4c>
 38a:	00 c0       	rjmp	.+0      	; 0x38c <lcdPassType+0x52>
		_delay_us(1);
		ETC_OUT = 0x0C;
 38c:	8c e0       	ldi	r24, 0x0C	; 12
 38e:	82 bb       	out	0x12, r24	; 18
 390:	a7 ec       	ldi	r26, 0xC7	; 199
 392:	b0 e0       	ldi	r27, 0x00	; 0
 394:	11 97       	sbiw	r26, 0x01	; 1
 396:	f1 f7       	brne	.-4      	; 0x394 <lcdPassType+0x5a>
 398:	00 c0       	rjmp	.+0      	; 0x39a <lcdPassType+0x60>
 39a:	00 00       	nop
		_delay_us(100);
		lcdCommand(0x10);
 39c:	80 e1       	ldi	r24, 0x10	; 16
 39e:	0e 94 c1 00 	call	0x182	; 0x182 <lcdCommand>
		return;
 3a2:	44 c0       	rjmp	.+136    	; 0x42c <__LOCK_REGION_LENGTH__+0x2c>
	}
	else if ( letter == '#' )
 3a4:	83 32       	cpi	r24, 0x23	; 35
 3a6:	51 f5       	brne	.+84     	; 0x3fc <lcdPassType+0xc2>
	{
		lcdCommand(1);
 3a8:	81 e0       	ldi	r24, 0x01	; 1
 3aa:	0e 94 c1 00 	call	0x182	; 0x182 <lcdCommand>
		lcdCommand(2);
 3ae:	82 e0       	ldi	r24, 0x02	; 2
 3b0:	0e 94 c1 00 	call	0x182	; 0x182 <lcdCommand>
 3b4:	0f 2e       	mov	r0, r31
 3b6:	f8 e7       	ldi	r31, 0x78	; 120
 3b8:	ef 2e       	mov	r14, r31
 3ba:	f0 e0       	ldi	r31, 0x00	; 0
 3bc:	ff 2e       	mov	r15, r31
 3be:	f0 2d       	mov	r31, r0
 3c0:	00 e0       	ldi	r16, 0x00	; 0
 3c2:	10 e0       	ldi	r17, 0x00	; 0
 3c4:	0f 2e       	mov	r0, r31
 3c6:	f0 e8       	ldi	r31, 0x80	; 128
 3c8:	cf 2e       	mov	r12, r31
 3ca:	f0 e0       	ldi	r31, 0x00	; 0
 3cc:	df 2e       	mov	r13, r31
 3ce:	f0 2d       	mov	r31, r0
		
		for ( int j = 0 ; j<8 ; j++)
		{
			eeprom_write_byte(&password[j],inPass[j]);
 3d0:	f7 01       	movw	r30, r14
 3d2:	61 91       	ld	r22, Z+
 3d4:	7f 01       	movw	r14, r30
 3d6:	c8 01       	movw	r24, r16
 3d8:	0e 94 d8 02 	call	0x5b0	; 0x5b0 <eeprom_write_byte>
 3dc:	0f 5f       	subi	r16, 0xFF	; 255
 3de:	1f 4f       	sbci	r17, 0xFF	; 255
	else if ( letter == '#' )
	{
		lcdCommand(1);
		lcdCommand(2);
		
		for ( int j = 0 ; j<8 ; j++)
 3e0:	ec 14       	cp	r14, r12
 3e2:	fd 04       	cpc	r15, r13
 3e4:	a9 f7       	brne	.-22     	; 0x3d0 <lcdPassType+0x96>
		{
			eeprom_write_byte(&password[j],inPass[j]);
		}
		
		memset(inPass,'\0',sizeof(inPass));
 3e6:	88 e0       	ldi	r24, 0x08	; 8
 3e8:	e8 e7       	ldi	r30, 0x78	; 120
 3ea:	f0 e0       	ldi	r31, 0x00	; 0
 3ec:	df 01       	movw	r26, r30
 3ee:	1d 92       	st	X+, r1
 3f0:	8a 95       	dec	r24
 3f2:	e9 f7       	brne	.-6      	; 0x3ee <lcdPassType+0xb4>
		passChanging = '0';
 3f4:	80 e3       	ldi	r24, 0x30	; 48
 3f6:	80 93 60 00 	sts	0x0060, r24	; 0x800060 <__data_start>
		return;
 3fa:	18 c0       	rjmp	.+48     	; 0x42c <__LOCK_REGION_LENGTH__+0x2c>
	}
	else
	{
		strncat(inPass,&letter,1);
 3fc:	41 e0       	ldi	r20, 0x01	; 1
 3fe:	50 e0       	ldi	r21, 0x00	; 0
 400:	be 01       	movw	r22, r28
 402:	6f 5f       	subi	r22, 0xFF	; 255
 404:	7f 4f       	sbci	r23, 0xFF	; 255
 406:	88 e7       	ldi	r24, 0x78	; 120
 408:	90 e0       	ldi	r25, 0x00	; 0
 40a:	0e 94 c0 02 	call	0x580	; 0x580 <strncat>
		LCD_OUT = letter;
 40e:	18 bb       	out	0x18, r17	; 24
		ETC_OUT = 0x0D;
 410:	8d e0       	ldi	r24, 0x0D	; 13
 412:	82 bb       	out	0x12, r24	; 18
 414:	b2 e0       	ldi	r27, 0x02	; 2
 416:	ba 95       	dec	r27
 418:	f1 f7       	brne	.-4      	; 0x416 <__LOCK_REGION_LENGTH__+0x16>
 41a:	00 c0       	rjmp	.+0      	; 0x41c <__LOCK_REGION_LENGTH__+0x1c>
		_delay_us(1);
		ETC_OUT = 0x0C;
 41c:	8c e0       	ldi	r24, 0x0C	; 12
 41e:	82 bb       	out	0x12, r24	; 18
 420:	e7 ec       	ldi	r30, 0xC7	; 199
 422:	f0 e0       	ldi	r31, 0x00	; 0
 424:	31 97       	sbiw	r30, 0x01	; 1
 426:	f1 f7       	brne	.-4      	; 0x424 <__LOCK_REGION_LENGTH__+0x24>
 428:	00 c0       	rjmp	.+0      	; 0x42a <__LOCK_REGION_LENGTH__+0x2a>
 42a:	00 00       	nop
		_delay_us(100);
	}
}
 42c:	0f 90       	pop	r0
 42e:	df 91       	pop	r29
 430:	cf 91       	pop	r28
 432:	1f 91       	pop	r17
 434:	0f 91       	pop	r16
 436:	ff 90       	pop	r15
 438:	ef 90       	pop	r14
 43a:	df 90       	pop	r13
 43c:	cf 90       	pop	r12
 43e:	08 95       	ret

00000440 <changePassword>:
void changePassword()
{
 440:	cf 93       	push	r28
 442:	df 93       	push	r29
	unsigned char letter;
	
	passChanging = '1';
 444:	81 e3       	ldi	r24, 0x31	; 49
 446:	80 93 60 00 	sts	0x0060, r24	; 0x800060 <__data_start>
 44a:	14 c0       	rjmp	.+40     	; 0x474 <changePassword+0x34>
	#else
		//round up by default
		__ticks_dc = (uint32_t)(ceil(fabs(__tmp)));
	#endif

	__builtin_avr_delay_cycles(__ticks_dc);
 44c:	8f ed       	ldi	r24, 0xDF	; 223
 44e:	9e e2       	ldi	r25, 0x2E	; 46
 450:	01 97       	sbiw	r24, 0x01	; 1
 452:	f1 f7       	brne	.-4      	; 0x450 <changePassword+0x10>
 454:	00 c0       	rjmp	.+0      	; 0x456 <changePassword+0x16>
 456:	00 00       	nop
	while (passChanging == '1')
	{
		for ( int i = 0 ; i < 4 ; i++ )
		{
			_delay_ms(6);
			letter = letterReader(i);
 458:	ce 01       	movw	r24, r28
 45a:	0e 94 70 00 	call	0xe0	; 0xe0 <letterReader>
			if(letter != 0)
 45e:	81 11       	cpse	r24, r1
				lcdPassType(letter);
 460:	0e 94 9d 01 	call	0x33a	; 0x33a <lcdPassType>
	
	passChanging = '1';
	
	while (passChanging == '1')
	{
		for ( int i = 0 ; i < 4 ; i++ )
 464:	21 96       	adiw	r28, 0x01	; 1
 466:	c4 30       	cpi	r28, 0x04	; 4
 468:	d1 05       	cpc	r29, r1
 46a:	81 f7       	brne	.-32     	; 0x44c <changePassword+0xc>
{
	unsigned char letter;
	
	passChanging = '1';
	
	while (passChanging == '1')
 46c:	80 91 60 00 	lds	r24, 0x0060	; 0x800060 <__data_start>
 470:	81 33       	cpi	r24, 0x31	; 49
 472:	19 f4       	brne	.+6      	; 0x47a <changePassword+0x3a>
		ETC_OUT = 0x0C;
		_delay_us(100);
	}
}
void changePassword()
{
 474:	c0 e0       	ldi	r28, 0x00	; 0
 476:	d0 e0       	ldi	r29, 0x00	; 0
 478:	e9 cf       	rjmp	.-46     	; 0x44c <changePassword+0xc>
			letter = letterReader(i);
			if(letter != 0)
				lcdPassType(letter);
		}
	}
}
 47a:	df 91       	pop	r29
 47c:	cf 91       	pop	r28
 47e:	08 95       	ret

00000480 <main>:

int main(void)
{
 480:	cf 93       	push	r28
 482:	df 93       	push	r29
 484:	cd b7       	in	r28, 0x3d	; 61
 486:	de b7       	in	r29, 0x3e	; 62
 488:	28 97       	sbiw	r28, 0x08	; 8
 48a:	0f b6       	in	r0, 0x3f	; 63
 48c:	f8 94       	cli
 48e:	de bf       	out	0x3e, r29	; 62
 490:	0f be       	out	0x3f, r0	; 63
 492:	cd bf       	out	0x3d, r28	; 61
	DDRC = 0x01;
 494:	81 e0       	ldi	r24, 0x01	; 1
 496:	84 bb       	out	0x14, r24	; 20
	ETC_OUT =0x0F;
 498:	8f e0       	ldi	r24, 0x0F	; 15
 49a:	82 bb       	out	0x12, r24	; 18
	
	KEY_DDR = 0x1F;
 49c:	8f e1       	ldi	r24, 0x1F	; 31
 49e:	8a bb       	out	0x1a, r24	; 26
	lcdInit();
 4a0:	0e 94 d2 00 	call	0x1a4	; 0x1a4 <lcdInit>
	unsigned char letter;
	
	unsigned char defpass[8] = "0000";
 4a4:	85 e0       	ldi	r24, 0x05	; 5
 4a6:	ef e6       	ldi	r30, 0x6F	; 111
 4a8:	f0 e0       	ldi	r31, 0x00	; 0
 4aa:	de 01       	movw	r26, r28
 4ac:	11 96       	adiw	r26, 0x01	; 1
 4ae:	01 90       	ld	r0, Z+
 4b0:	0d 92       	st	X+, r0
 4b2:	8a 95       	dec	r24
 4b4:	e1 f7       	brne	.-8      	; 0x4ae <main+0x2e>
 4b6:	fe 01       	movw	r30, r28
 4b8:	36 96       	adiw	r30, 0x06	; 6
 4ba:	83 e0       	ldi	r24, 0x03	; 3
 4bc:	df 01       	movw	r26, r30
 4be:	1d 92       	st	X+, r1
 4c0:	8a 95       	dec	r24
 4c2:	e9 f7       	brne	.-6      	; 0x4be <main+0x3e>
 4c4:	8e 01       	movw	r16, r28
 4c6:	0f 5f       	subi	r16, 0xFF	; 255
 4c8:	1f 4f       	sbci	r17, 0xFF	; 255
 4ca:	0f 2e       	mov	r0, r31
 4cc:	f0 e0       	ldi	r31, 0x00	; 0
 4ce:	ef 2e       	mov	r14, r31
 4d0:	f0 e0       	ldi	r31, 0x00	; 0
 4d2:	ff 2e       	mov	r15, r31
 4d4:	f0 2d       	mov	r31, r0
 4d6:	6e 01       	movw	r12, r28
 4d8:	b9 e0       	ldi	r27, 0x09	; 9
 4da:	cb 0e       	add	r12, r27
 4dc:	d1 1c       	adc	r13, r1
	for ( int j = 0 ; j<8 ; j++)
	{
		eeprom_write_byte(&password[j],defpass[j]);
 4de:	f8 01       	movw	r30, r16
 4e0:	61 91       	ld	r22, Z+
 4e2:	8f 01       	movw	r16, r30
 4e4:	c7 01       	movw	r24, r14
 4e6:	0e 94 d8 02 	call	0x5b0	; 0x5b0 <eeprom_write_byte>
 4ea:	ff ef       	ldi	r31, 0xFF	; 255
 4ec:	ef 1a       	sub	r14, r31
 4ee:	ff 0a       	sbc	r15, r31
	KEY_DDR = 0x1F;
	lcdInit();
	unsigned char letter;
	
	unsigned char defpass[8] = "0000";
	for ( int j = 0 ; j<8 ; j++)
 4f0:	0c 15       	cp	r16, r12
 4f2:	1d 05       	cpc	r17, r13
 4f4:	a1 f7       	brne	.-24     	; 0x4de <main+0x5e>
		eeprom_write_byte(&password[j],defpass[j]);
	}

    while (1) 
    {
		if ( login == 0 )
 4f6:	80 91 80 00 	lds	r24, 0x0080	; 0x800080 <login>
 4fa:	90 91 81 00 	lds	r25, 0x0081	; 0x800081 <login+0x1>
 4fe:	00 97       	sbiw	r24, 0x00	; 0
 500:	a1 f4       	brne	.+40     	; 0x52a <main+0xaa>
 502:	00 e0       	ldi	r16, 0x00	; 0
 504:	10 e0       	ldi	r17, 0x00	; 0
 506:	8f ed       	ldi	r24, 0xDF	; 223
 508:	9e e2       	ldi	r25, 0x2E	; 46
 50a:	01 97       	sbiw	r24, 0x01	; 1
 50c:	f1 f7       	brne	.-4      	; 0x50a <main+0x8a>
 50e:	00 c0       	rjmp	.+0      	; 0x510 <main+0x90>
 510:	00 00       	nop
		{
			
			for ( int i = 0 ; i < 4 ; i++ )
			{
				_delay_ms(6);
				letter = letterReader(i);
 512:	c8 01       	movw	r24, r16
 514:	0e 94 70 00 	call	0xe0	; 0xe0 <letterReader>
				if(letter != 0)
 518:	81 11       	cpse	r24, r1
					lcdType(letter);
 51a:	0e 94 f0 00 	call	0x1e0	; 0x1e0 <lcdType>
    while (1) 
    {
		if ( login == 0 )
		{
			
			for ( int i = 0 ; i < 4 ; i++ )
 51e:	0f 5f       	subi	r16, 0xFF	; 255
 520:	1f 4f       	sbci	r17, 0xFF	; 255
 522:	04 30       	cpi	r16, 0x04	; 4
 524:	11 05       	cpc	r17, r1
 526:	79 f7       	brne	.-34     	; 0x506 <main+0x86>
 528:	e6 cf       	rjmp	.-52     	; 0x4f6 <main+0x76>
				letter = letterReader(i);
				if(letter != 0)
					lcdType(letter);
			}
		}
		else if ( login == 1 )
 52a:	01 97       	sbiw	r24, 0x01	; 1
 52c:	21 f7       	brne	.-56     	; 0x4f6 <main+0x76>
 52e:	00 e0       	ldi	r16, 0x00	; 0
 530:	10 e0       	ldi	r17, 0x00	; 0
 532:	af ed       	ldi	r26, 0xDF	; 223
 534:	be e2       	ldi	r27, 0x2E	; 46
 536:	11 97       	sbiw	r26, 0x01	; 1
 538:	f1 f7       	brne	.-4      	; 0x536 <main+0xb6>
 53a:	00 c0       	rjmp	.+0      	; 0x53c <main+0xbc>
 53c:	00 00       	nop
		{
			for ( int i = 0 ; i < 4 ; i++ )
			{
				_delay_ms(6);
				letter = letterReader(i);
 53e:	c8 01       	movw	r24, r16
 540:	0e 94 70 00 	call	0xe0	; 0xe0 <letterReader>
				if(letter == 0);
				if(letter == '1')
 544:	81 33       	cpi	r24, 0x31	; 49
 546:	49 f4       	brne	.+18     	; 0x55a <main+0xda>
				{
					lcdCommand(1);
 548:	81 e0       	ldi	r24, 0x01	; 1
 54a:	0e 94 c1 00 	call	0x182	; 0x182 <lcdCommand>
					lcdCommand(2);
 54e:	82 e0       	ldi	r24, 0x02	; 2
 550:	0e 94 c1 00 	call	0x182	; 0x182 <lcdCommand>
					changePassword();
 554:	0e 94 20 02 	call	0x440	; 0x440 <changePassword>
 558:	0d c0       	rjmp	.+26     	; 0x574 <main+0xf4>
				}
				else if ( letter == '2')
 55a:	82 33       	cpi	r24, 0x32	; 50
 55c:	59 f4       	brne	.+22     	; 0x574 <main+0xf4>
				{
					login = 0;
 55e:	10 92 81 00 	sts	0x0081, r1	; 0x800081 <login+0x1>
 562:	10 92 80 00 	sts	0x0080, r1	; 0x800080 <login>
					ETC_OUT |= (1<<3);
 566:	93 9a       	sbi	0x12, 3	; 18
					lcdCommand(1);
 568:	81 e0       	ldi	r24, 0x01	; 1
 56a:	0e 94 c1 00 	call	0x182	; 0x182 <lcdCommand>
					lcdCommand(2);
 56e:	82 e0       	ldi	r24, 0x02	; 2
 570:	0e 94 c1 00 	call	0x182	; 0x182 <lcdCommand>
					lcdType(letter);
			}
		}
		else if ( login == 1 )
		{
			for ( int i = 0 ; i < 4 ; i++ )
 574:	0f 5f       	subi	r16, 0xFF	; 255
 576:	1f 4f       	sbci	r17, 0xFF	; 255
 578:	04 30       	cpi	r16, 0x04	; 4
 57a:	11 05       	cpc	r17, r1
 57c:	d1 f6       	brne	.-76     	; 0x532 <main+0xb2>
 57e:	bb cf       	rjmp	.-138    	; 0x4f6 <main+0x76>

00000580 <strncat>:
 580:	fb 01       	movw	r30, r22
 582:	dc 01       	movw	r26, r24
 584:	0d 90       	ld	r0, X+
 586:	00 20       	and	r0, r0
 588:	e9 f7       	brne	.-6      	; 0x584 <strncat+0x4>
 58a:	11 97       	sbiw	r26, 0x01	; 1
 58c:	41 50       	subi	r20, 0x01	; 1
 58e:	50 40       	sbci	r21, 0x00	; 0
 590:	28 f0       	brcs	.+10     	; 0x59c <strncat+0x1c>
 592:	01 90       	ld	r0, Z+
 594:	00 20       	and	r0, r0
 596:	0d 92       	st	X+, r0
 598:	c9 f7       	brne	.-14     	; 0x58c <strncat+0xc>
 59a:	08 95       	ret
 59c:	1c 92       	st	X, r1
 59e:	08 95       	ret

000005a0 <eeprom_read_byte>:
 5a0:	e1 99       	sbic	0x1c, 1	; 28
 5a2:	fe cf       	rjmp	.-4      	; 0x5a0 <eeprom_read_byte>
 5a4:	9f bb       	out	0x1f, r25	; 31
 5a6:	8e bb       	out	0x1e, r24	; 30
 5a8:	e0 9a       	sbi	0x1c, 0	; 28
 5aa:	99 27       	eor	r25, r25
 5ac:	8d b3       	in	r24, 0x1d	; 29
 5ae:	08 95       	ret

000005b0 <eeprom_write_byte>:
 5b0:	26 2f       	mov	r18, r22

000005b2 <eeprom_write_r18>:
 5b2:	e1 99       	sbic	0x1c, 1	; 28
 5b4:	fe cf       	rjmp	.-4      	; 0x5b2 <eeprom_write_r18>
 5b6:	9f bb       	out	0x1f, r25	; 31
 5b8:	8e bb       	out	0x1e, r24	; 30
 5ba:	2d bb       	out	0x1d, r18	; 29
 5bc:	0f b6       	in	r0, 0x3f	; 63
 5be:	f8 94       	cli
 5c0:	e2 9a       	sbi	0x1c, 2	; 28
 5c2:	e1 9a       	sbi	0x1c, 1	; 28
 5c4:	0f be       	out	0x3f, r0	; 63
 5c6:	01 96       	adiw	r24, 0x01	; 1
 5c8:	08 95       	ret

000005ca <_exit>:
 5ca:	f8 94       	cli

000005cc <__stop_program>:
 5cc:	ff cf       	rjmp	.-2      	; 0x5cc <__stop_program>
